target datalayout = "e-m:e-p270:32:32-p271:32:32-p272:64:64-i64:64-i128:128-f80:128-n8:16:32:64-S128"
target triple = "x86_64-pc-linux-gnu"

; Function Attrs: mustprogress nounwind uwtable
define noundef i32 @_Z14gmx_strcasecmpPKcS0_(ptr noundef %0, ptr noundef %1) #1 {
  %3 = alloca i32, align 4
  %4 = alloca ptr, align 8
  %5 = alloca ptr, align 8
  %6 = alloca i8, align 1
  %7 = alloca i8, align 1
  %8 = alloca i32, align 4
  store ptr %0, ptr %4, align 8, !tbaa !4
  store ptr %1, ptr %5, align 8, !tbaa !4
  call void @llvm.lifetime.start.p0(i64 1, ptr %6) #13
  store i8 0, ptr %6, align 1, !tbaa !11
  call void @llvm.lifetime.start.p0(i64 1, ptr %7) #13
  store i8 0, ptr %7, align 1, !tbaa !11
  br label %9

9:                                                ; preds = %34, %2
  %10 = load ptr, ptr %4, align 8, !tbaa !4
  %11 = getelementptr inbounds nuw i8, ptr %10, i32 1
  store ptr %11, ptr %4, align 8, !tbaa !4
  %12 = load i8, ptr %10, align 1, !tbaa !11
  %13 = sext i8 %12 to i32
  %14 = call i32 @toupper(i32 noundef %13) #14
  %15 = trunc i32 %14 to i8
  store i8 %15, ptr %6, align 1, !tbaa !11
  %16 = load ptr, ptr %5, align 8, !tbaa !4
  %17 = getelementptr inbounds nuw i8, ptr %16, i32 1
  store ptr %17, ptr %5, align 8, !tbaa !4
  %18 = load i8, ptr %16, align 1, !tbaa !11
  %19 = sext i8 %18 to i32
  %20 = call i32 @toupper(i32 noundef %19) #14
  %21 = trunc i32 %20 to i8
  store i8 %21, ptr %7, align 1, !tbaa !11
  %22 = load i8, ptr %6, align 1, !tbaa !11
  %23 = sext i8 %22 to i32
  %24 = load i8, ptr %7, align 1, !tbaa !11
  %25 = sext i8 %24 to i32
  %26 = icmp ne i32 %23, %25
  br i1 %26, label %27, label %33

27:                                               ; preds = %9
  %28 = load i8, ptr %6, align 1, !tbaa !11
  %29 = sext i8 %28 to i32
  %30 = load i8, ptr %7, align 1, !tbaa !11
  %31 = sext i8 %30 to i32
  %32 = sub nsw i32 %29, %31
  store i32 %32, ptr %3, align 4
  store i32 1, ptr %8, align 4
  br label %39

33:                                               ; preds = %9
  br label %34

34:                                               ; preds = %33
  %35 = load i8, ptr %6, align 1, !tbaa !11
  %36 = sext i8 %35 to i32
  %37 = icmp ne i32 %36, 0
  br i1 %37, label %9, label %38, !llvm.loop !79

38:                                               ; preds = %34
  store i32 0, ptr %3, align 4
  store i32 1, ptr %8, align 4
  br label %39

39:                                               ; preds = %38, %27
  call void @llvm.lifetime.end.p0(i64 1, ptr %7) #13
  call void @llvm.lifetime.end.p0(i64 1, ptr %6) #13
  %40 = load i32, ptr %3, align 4
  ret i32 %40
}