; Function Attrs: mustprogress nofree nounwind willreturn memory(read) uwtable
define noundef range(i32 -255, 256) i32 @_Z14gmx_strcasecmpPKcS0_(ptr noundef readonly captures(none) %0, ptr noundef readonly captures(none) %1) local_unnamed_addr #14 {
  br label %3

3:                                                ; preds = %14, %2
  %.07 = phi ptr [ %0, %2 ], [ %16, %14 ]
  %.0 = phi ptr [ %1, %2 ], [ %15, %14 ]
  %4 = load i8, ptr %.07, align 1, !tbaa !4
  %5 = sext i8 %4 to i32
  %6 = tail call i32 @toupper(i32 noundef %5) #24
  %7 = load i8, ptr %.0, align 1, !tbaa !4
  %8 = sext i8 %7 to i32
  %9 = tail call i32 @toupper(i32 noundef %8) #24
  %sext = shl i32 %6, 24
  %10 = ashr exact i32 %sext, 24
  %sext11 = shl i32 %9, 24
  %11 = ashr exact i32 %sext11, 24
  %.not = icmp eq i32 %10, %11
  br i1 %.not, label %14, label %12

12:                                               ; preds = %3
  %13 = sub nsw i32 %10, %11
  br label %.loopexit

14:                                               ; preds = %3
  %15 = getelementptr inbounds nuw i8, ptr %.0, i64 1
  %16 = getelementptr inbounds nuw i8, ptr %.07, i64 1
  %.not12 = icmp eq i32 %sext, 0
  br i1 %.not12, label %.loopexit, label %3, !llvm.loop !25

.loopexit:                                        ; preds = %14, %12
  %.08 = phi i32 [ %13, %12 ], [ 0, %14 ]
  ret i32 %.08
}